target datalayout = "e-m:e-p270:32:32-p271:32:32-p272:64:64-i64:64-i128:128-f80:128-n8:16:32:64-S128"
target triple = "x86_64-pc-linux-gnu"

%struct.Int128_ = type { i64, i64 }

; Function Attrs: nounwind uwtable
define internal { i64, i64 } @int64_mult(i64 noundef %0, i64 noundef %1) #0 {
  %3 = alloca %struct.Int128_, align 8
  %4 = alloca i64, align 8
  %5 = alloca i64, align 8
  %6 = alloca i64, align 8
  %7 = alloca i64, align 8
  %8 = alloca i64, align 8
  %9 = alloca i64, align 8
  %10 = alloca i64, align 8
  %11 = alloca i64, align 8
  store i64 %0, ptr %4, align 8
  store i64 %1, ptr %5, align 8
  %12 = load i64, ptr %4, align 8
  %13 = and i64 %12, 4294967295
  store i64 %13, ptr %6, align 8
  %14 = load i64, ptr %5, align 8
  %15 = and i64 %14, 4294967295
  store i64 %15, ptr %7, align 8
  %16 = load i64, ptr %6, align 8
  %17 = load i64, ptr %7, align 8
  %18 = mul i64 %16, %17
  store i64 %18, ptr %8, align 8
  %19 = load i64, ptr %8, align 8
  %20 = and i64 %19, 4294967295
  store i64 %20, ptr %9, align 8
  %21 = load i64, ptr %8, align 8
  %22 = lshr i64 %21, 32
  store i64 %22, ptr %10, align 8
  %23 = load i64, ptr %4, align 8
  %24 = lshr i64 %23, 32
  store i64 %24, ptr %4, align 8
  %25 = load i64, ptr %4, align 8
  %26 = load i64, ptr %7, align 8
  %27 = mul i64 %25, %26
  %28 = load i64, ptr %10, align 8
  %29 = add i64 %27, %28
  store i64 %29, ptr %8, align 8
  %30 = load i64, ptr %8, align 8
  %31 = and i64 %30, 4294967295
  store i64 %31, ptr %10, align 8
  %32 = load i64, ptr %8, align 8
  %33 = lshr i64 %32, 32
  store i64 %33, ptr %11, align 8
  %34 = load i64, ptr %5, align 8
  %35 = lshr i64 %34, 32
  store i64 %35, ptr %5, align 8
  %36 = load i64, ptr %6, align 8
  %37 = load i64, ptr %5, align 8
  %38 = mul i64 %36, %37
  %39 = load i64, ptr %10, align 8
  %40 = add i64 %38, %39
  store i64 %40, ptr %8, align 8
  %41 = getelementptr inbounds %struct.Int128_, ptr %3, i32 0, i32 0
  %42 = load i64, ptr %4, align 8
  %43 = load i64, ptr %5, align 8
  %44 = mul i64 %42, %43
  %45 = load i64, ptr %11, align 8
  %46 = add i64 %44, %45
  %47 = load i64, ptr %8, align 8
  %48 = lshr i64 %47, 32
  %49 = add i64 %46, %48
  store i64 %49, ptr %41, align 8
  %50 = getelementptr inbounds %struct.Int128_, ptr %3, i32 0, i32 1
  %51 = load i64, ptr %8, align 8
  %52 = shl i64 %51, 32
  %53 = load i64, ptr %9, align 8
  %54 = add i64 %52, %53
  store i64 %54, ptr %50, align 8
  %55 = load { i64, i64 }, ptr %3, align 8
  ret { i64, i64 } %55
}

; Function Attrs: nounwind uwtable
define dso_local { i64, i64 } @i128_mult64(i64 %0, i64 %1, i64 noundef %2) #0 {
  %4 = alloca %struct.Int128_, align 8
  %5 = alloca %struct.Int128_, align 8
  %6 = alloca i64, align 8
  %7 = getelementptr inbounds { i64, i64 }, ptr %5, i32 0, i32 0
  store i64 %0, ptr %7, align 8
  %8 = getelementptr inbounds { i64, i64 }, ptr %5, i32 0, i32 1
  store i64 %1, ptr %8, align 8
  store i64 %2, ptr %6, align 8
  %9 = getelementptr inbounds %struct.Int128_, ptr %5, i32 0, i32 1
  %10 = load i64, ptr %9, align 8
  %11 = load i64, ptr %6, align 8
  %12 = call { i64, i64 } @int64_mult(i64 noundef %10, i64 noundef %11)
  %13 = getelementptr inbounds { i64, i64 }, ptr %4, i32 0, i32 0
  %14 = extractvalue { i64, i64 } %12, 0
  store i64 %14, ptr %13, align 8
  %15 = getelementptr inbounds { i64, i64 }, ptr %4, i32 0, i32 1
  %16 = extractvalue { i64, i64 } %12, 1
  store i64 %16, ptr %15, align 8
  %17 = getelementptr inbounds %struct.Int128_, ptr %5, i32 0, i32 0
  %18 = load i64, ptr %17, align 8
  %19 = load i64, ptr %6, align 8
  %20 = mul i64 %18, %19
  %21 = getelementptr inbounds %struct.Int128_, ptr %4, i32 0, i32 0
  %22 = load i64, ptr %21, align 8
  %23 = add i64 %22, %20
  store i64 %23, ptr %21, align 8
  %24 = load { i64, i64 }, ptr %4, align 8
  ret { i64, i64 } %24
}