; Function Attrs: mustprogress nofree norecurse nosync nounwind willreturn memory(none) uwtable
define dso_local { i64, i64 } @i128_mult64(i64 %0, i64 %1, i64 noundef %2) local_unnamed_addr #1 {
  %4 = and i64 %1, 4294967295
  %5 = and i64 %2, 4294967295
  %6 = mul nuw i64 %5, %4
  %7 = and i64 %6, 4294967295
  %8 = lshr i64 %6, 32
  %9 = lshr i64 %1, 32
  %10 = mul nuw i64 %5, %9
  %11 = add nuw i64 %8, %10
  %12 = and i64 %11, 4294967295
  %13 = lshr i64 %11, 32
  %14 = lshr i64 %2, 32
  %15 = mul nuw i64 %14, %4
  %16 = add nuw i64 %12, %15
  %17 = mul nuw i64 %14, %9
  %18 = lshr i64 %16, 32
  %19 = shl i64 %16, 32
  %20 = or disjoint i64 %19, %7
  %21 = mul i64 %2, %0
  %22 = add i64 %17, %21
  %23 = add i64 %22, %13
  %24 = add i64 %23, %18
  %.fca.0.insert = insertvalue { i64, i64 } poison, i64 %24, 0
  %.fca.1.insert = insertvalue { i64, i64 } %.fca.0.insert, i64 %20, 1
  ret { i64, i64 } %.fca.1.insert
}